; ModuleID = 'source-C-CXX/40/25.cpp'
source_filename = "source-C-CXX/40/25.cpp"
target datalayout = "e-m:e-p270:32:32-p271:32:32-p272:64:64-i64:64-f80:128-n8:16:32:64-S128"
target triple = "x86_64-pc-linux-gnu"

%"class.std::ios_base::Init" = type { i8 }
%"class.std::basic_ostream" = type { i32 (...)**, %"class.std::basic_ios" }
%"class.std::basic_ios" = type { %"class.std::ios_base", %"class.std::basic_ostream"*, i8, i8, %"class.std::basic_streambuf"*, %"class.std::ctype"*, %"class.std::num_put"*, %"class.std::num_get"* }
%"class.std::ios_base" = type { i32 (...)**, i64, i64, i32, i32, i32, %"struct.std::ios_base::_Callback_list"*, %"struct.std::ios_base::_Words", [8 x %"struct.std::ios_base::_Words"], i32, %"struct.std::ios_base::_Words"*, %"class.std::locale" }
%"struct.std::ios_base::_Callback_list" = type { %"struct.std::ios_base::_Callback_list"*, void (i32, %"class.std::ios_base"*, i32)*, i32, i32 }
%"struct.std::ios_base::_Words" = type { i8*, i64 }
%"class.std::locale" = type { %"class.std::locale::_Impl"* }
%"class.std::locale::_Impl" = type { i32, %"class.std::locale::facet"**, i64, %"class.std::locale::facet"**, i8** }
%"class.std::locale::facet" = type <{ i32 (...)**, i32, [4 x i8] }>
%"class.std::basic_streambuf" = type { i32 (...)**, i8*, i8*, i8*, i8*, i8*, i8*, %"class.std::locale" }
%"class.std::ctype" = type <{ %"class.std::locale::facet.base", [4 x i8], %struct.__locale_struct*, i8, [7 x i8], i32*, i32*, i16*, i8, [256 x i8], [256 x i8], i8, [6 x i8] }>
%"class.std::locale::facet.base" = type <{ i32 (...)**, i32 }>
%struct.__locale_struct = type { [13 x %struct.__locale_data*], i16*, i32*, i32*, [13 x i8*] }
%struct.__locale_data = type opaque
%"class.std::num_put" = type { %"class.std::locale::facet.base", [4 x i8] }
%"class.std::num_get" = type { %"class.std::locale::facet.base", [4 x i8] }

@_ZStL8__ioinit = internal global %"class.std::ios_base::Init" zeroinitializer, align 1
@__dso_handle = external hidden global i8
@_ZSt4cout = external global %"class.std::basic_ostream", align 8
@llvm.global_ctors = appending global [1 x { i32, void ()*, i8* }] [{ i32, void ()*, i8* } { i32 65535, void ()* @_GLOBAL__sub_I_25.cpp, i8* null }]

declare void @_ZNSt8ios_base4InitC1Ev(%"class.std::ios_base::Init"* nonnull align 1 dereferenceable(1)) unnamed_addr #0

; Function Attrs: nounwind
declare void @_ZNSt8ios_base4InitD1Ev(%"class.std::ios_base::Init"* nonnull align 1 dereferenceable(1)) unnamed_addr #1

; Function Attrs: nofree nounwind
declare i32 @__cxa_atexit(void (i8*)*, i8*, i8*) local_unnamed_addr #2

; Function Attrs: mustprogress norecurse sspstrong uwtable
define dso_local i32 @main() local_unnamed_addr #3 {
  %1 = alloca i8, align 1
  %2 = alloca i8, align 1
  %3 = alloca i8, align 1
  %4 = alloca i8, align 1
  %5 = alloca [6 x i32], align 16
  %6 = bitcast [6 x i32]* %5 to i8*
  call void @llvm.lifetime.start.p0i8(i64 24, i8* nonnull %6) #6
  %7 = getelementptr inbounds [6 x i32], [6 x i32]* %5, i64 0, i64 1
  %8 = getelementptr inbounds [6 x i32], [6 x i32]* %5, i64 0, i64 5
  %9 = bitcast i32* %7 to <4 x i32>*
  br label %10

10:                                               ; preds = %0, %85
  %11 = phi i64 [ 1, %0 ], [ %86, %85 ]
  %12 = icmp eq i64 %11, 5
  %13 = zext i1 %12 to i32
  %14 = getelementptr inbounds [6 x i32], [6 x i32]* %5, i64 0, i64 %11
  %15 = trunc i64 %11 to i32
  br label %16

16:                                               ; preds = %10, %82
  %17 = phi i64 [ 1, %10 ], [ %83, %82 ]
  %18 = icmp eq i64 %17, %11
  br i1 %18, label %82, label %19

19:                                               ; preds = %16
  %20 = add nuw nsw i64 %17, %11
  %21 = icmp eq i64 %17, 2
  %22 = zext i1 %21 to i32
  %23 = getelementptr inbounds [6 x i32], [6 x i32]* %5, i64 0, i64 %17
  %24 = trunc i64 %17 to i32
  br label %25

25:                                               ; preds = %19, %79
  %26 = phi i64 [ 1, %19 ], [ %80, %79 ]
  %27 = icmp eq i64 %26, %11
  %28 = icmp eq i64 %26, %17
  %29 = select i1 %27, i1 true, i1 %28
  br i1 %29, label %79, label %30

30:                                               ; preds = %25
  %31 = add nuw nsw i64 %20, %26
  %32 = icmp ne i64 %26, 1
  %33 = zext i1 %32 to i32
  %34 = getelementptr inbounds [6 x i32], [6 x i32]* %5, i64 0, i64 %26
  %35 = trunc i64 %26 to i32
  br label %36

36:                                               ; preds = %30, %76
  %37 = phi i64 [ 1, %30 ], [ %77, %76 ]
  %38 = icmp eq i64 %37, %11
  %39 = icmp eq i64 %37, %17
  %40 = select i1 %38, i1 true, i1 %39
  %41 = icmp eq i64 %37, %26
  %42 = select i1 %40, i1 true, i1 %41
  br i1 %42, label %76, label %43

43:                                               ; preds = %36
  %44 = add nuw nsw i64 %31, %37
  %45 = sub nsw i64 15, %44
  %46 = icmp eq i64 %45, 1
  %47 = zext i1 %46 to i32
  %48 = icmp eq i64 %37, 1
  %49 = zext i1 %48 to i32
  store i32 %47, i32* %14, align 4, !tbaa !5
  store i32 %22, i32* %23, align 4, !tbaa !5
  store i32 %13, i32* %34, align 4, !tbaa !5
  %50 = getelementptr inbounds [6 x i32], [6 x i32]* %5, i64 0, i64 %37
  store i32 %33, i32* %50, align 4, !tbaa !5
  %51 = getelementptr inbounds [6 x i32], [6 x i32]* %5, i64 0, i64 %45
  store i32 %49, i32* %51, align 4, !tbaa !5
  %52 = load <4 x i32>, <4 x i32>* %9, align 4
  %53 = freeze <4 x i32> %52
  %54 = icmp eq <4 x i32> %53, <i32 1, i32 1, i32 0, i32 0>
  %55 = bitcast <4 x i1> %54 to i4
  %56 = icmp eq i4 %55, -1
  br i1 %56, label %57, label %76

57:                                               ; preds = %43
  %58 = load i32, i32* %8, align 4, !tbaa !5
  %59 = freeze i32 %58
  %60 = icmp ne i32 %59, 0
  %61 = and i64 %44, 4294967294
  %62 = icmp eq i64 %61, 12
  %63 = select i1 %60, i1 true, i1 %62
  br i1 %63, label %76, label %64

64:                                               ; preds = %57
  %65 = call nonnull align 8 dereferenceable(8) %"class.std::basic_ostream"* @_ZNSolsEi(%"class.std::basic_ostream"* nonnull align 8 dereferenceable(8) @_ZSt4cout, i32 %15)
  call void @llvm.lifetime.start.p0i8(i64 1, i8* nonnull %4)
  store i8 32, i8* %4, align 1, !tbaa !9
  %66 = call nonnull align 8 dereferenceable(8) %"class.std::basic_ostream"* @_ZSt16__ostream_insertIcSt11char_traitsIcEERSt13basic_ostreamIT_T0_ES6_PKS3_l(%"class.std::basic_ostream"* nonnull align 8 dereferenceable(8) %65, i8* nonnull %4, i64 1)
  call void @llvm.lifetime.end.p0i8(i64 1, i8* nonnull %4)
  %67 = call nonnull align 8 dereferenceable(8) %"class.std::basic_ostream"* @_ZNSolsEi(%"class.std::basic_ostream"* nonnull align 8 dereferenceable(8) %66, i32 %24)
  call void @llvm.lifetime.start.p0i8(i64 1, i8* nonnull %3)
  store i8 32, i8* %3, align 1, !tbaa !9
  %68 = call nonnull align 8 dereferenceable(8) %"class.std::basic_ostream"* @_ZSt16__ostream_insertIcSt11char_traitsIcEERSt13basic_ostreamIT_T0_ES6_PKS3_l(%"class.std::basic_ostream"* nonnull align 8 dereferenceable(8) %67, i8* nonnull %3, i64 1)
  call void @llvm.lifetime.end.p0i8(i64 1, i8* nonnull %3)
  %69 = call nonnull align 8 dereferenceable(8) %"class.std::basic_ostream"* @_ZNSolsEi(%"class.std::basic_ostream"* nonnull align 8 dereferenceable(8) %68, i32 %35)
  call void @llvm.lifetime.start.p0i8(i64 1, i8* nonnull %2)
  store i8 32, i8* %2, align 1, !tbaa !9
  %70 = call nonnull align 8 dereferenceable(8) %"class.std::basic_ostream"* @_ZSt16__ostream_insertIcSt11char_traitsIcEERSt13basic_ostreamIT_T0_ES6_PKS3_l(%"class.std::basic_ostream"* nonnull align 8 dereferenceable(8) %69, i8* nonnull %2, i64 1)
  call void @llvm.lifetime.end.p0i8(i64 1, i8* nonnull %2)
  %71 = trunc i64 %37 to i32
  %72 = call nonnull align 8 dereferenceable(8) %"class.std::basic_ostream"* @_ZNSolsEi(%"class.std::basic_ostream"* nonnull align 8 dereferenceable(8) %70, i32 %71)
  call void @llvm.lifetime.start.p0i8(i64 1, i8* nonnull %1)
  store i8 32, i8* %1, align 1, !tbaa !9
  %73 = call nonnull align 8 dereferenceable(8) %"class.std::basic_ostream"* @_ZSt16__ostream_insertIcSt11char_traitsIcEERSt13basic_ostreamIT_T0_ES6_PKS3_l(%"class.std::basic_ostream"* nonnull align 8 dereferenceable(8) %72, i8* nonnull %1, i64 1)
  call void @llvm.lifetime.end.p0i8(i64 1, i8* nonnull %1)
  %74 = trunc i64 %45 to i32
  %75 = call nonnull align 8 dereferenceable(8) %"class.std::basic_ostream"* @_ZNSolsEi(%"class.std::basic_ostream"* nonnull align 8 dereferenceable(8) %73, i32 %74)
  br label %76

76:                                               ; preds = %57, %43, %64, %36
  %77 = add nuw nsw i64 %37, 1
  %78 = icmp eq i64 %77, 6
  br i1 %78, label %79, label %36, !llvm.loop !10

79:                                               ; preds = %76, %25
  %80 = add nuw nsw i64 %26, 1
  %81 = icmp eq i64 %80, 6
  br i1 %81, label %82, label %25, !llvm.loop !12

82:                                               ; preds = %79, %16
  %83 = add nuw nsw i64 %17, 1
  %84 = icmp eq i64 %83, 6
  br i1 %84, label %85, label %16, !llvm.loop !13

85:                                               ; preds = %82
  %86 = add nuw nsw i64 %11, 1
  %87 = icmp eq i64 %86, 6
  br i1 %87, label %88, label %10, !llvm.loop !14

88:                                               ; preds = %85
  call void @llvm.lifetime.end.p0i8(i64 24, i8* nonnull %6) #6
  ret i32 0
}

; Function Attrs: argmemonly mustprogress nofree nosync nounwind willreturn
declare void @llvm.lifetime.start.p0i8(i64 immarg, i8* nocapture) #4

declare nonnull align 8 dereferenceable(8) %"class.std::basic_ostream"* @_ZNSolsEi(%"class.std::basic_ostream"* nonnull align 8 dereferenceable(8), i32) local_unnamed_addr #0

; Function Attrs: argmemonly mustprogress nofree nosync nounwind willreturn
declare void @llvm.lifetime.end.p0i8(i64 immarg, i8* nocapture) #4

declare nonnull align 8 dereferenceable(8) %"class.std::basic_ostream"* @_ZSt16__ostream_insertIcSt11char_traitsIcEERSt13basic_ostreamIT_T0_ES6_PKS3_l(%"class.std::basic_ostream"* nonnull align 8 dereferenceable(8), i8*, i64) local_unnamed_addr #0

; Function Attrs: sspstrong uwtable
define internal void @_GLOBAL__sub_I_25.cpp() #5 section ".text.startup" {
  tail call void @_ZNSt8ios_base4InitC1Ev(%"class.std::ios_base::Init"* nonnull align 1 dereferenceable(1) @_ZStL8__ioinit)
  %1 = tail call i32 @__cxa_atexit(void (i8*)* bitcast (void (%"class.std::ios_base::Init"*)* @_ZNSt8ios_base4InitD1Ev to void (i8*)*), i8* getelementptr inbounds (%"class.std::ios_base::Init", %"class.std::ios_base::Init"* @_ZStL8__ioinit, i64 0, i32 0), i8* nonnull @__dso_handle) #6
  ret void
}


!llvm.module.flags = !{!0, !1, !2, !3}
!llvm.ident = !{!4}

!0 = !{i32 1, !"wchar_size", i32 4}
!1 = !{i32 7, !"PIC Level", i32 2}
!2 = !{i32 7, !"PIE Level", i32 2}
!3 = !{i32 7, !"uwtable", i32 1}
!4 = !{!"clang version 13.0.0"}
!5 = !{!6, !6, i64 0}
!6 = !{!"int", !7, i64 0}
!7 = !{!"omnipotent char", !8, i64 0}
!8 = !{!"Simple C++ TBAA"}
!9 = !{!7, !7, i64 0}
!10 = distinct !{!10, !11}
!11 = !{!"llvm.loop.mustprogress"}
!12 = distinct !{!12, !11}
!13 = distinct !{!13, !11}
!14 = distinct !{!14, !11}
